; Function Attrs: nounwind uwtable
define void @Saig_ManBmcCountNonternary(ptr noundef readonly captures(none) %0, ptr noundef readonly captures(none) %1, i32 noundef %2) local_unnamed_addr #0 {
  %4 = add i32 %2, 1
  %5 = sext i32 %4 to i64
  %6 = tail call noalias ptr @calloc(i64 noundef %5, i64 noundef 4) #26
  %7 = getelementptr i8, ptr %1, i64 8
  %.val = load ptr, ptr %7, align 8, !tbaa !23
  %8 = sext i32 %2 to i64
  %9 = getelementptr inbounds ptr, ptr %.val, i64 %8
  %10 = load ptr, ptr %9, align 8, !tbaa !25
  %11 = getelementptr i8, ptr %0, i64 24
  %.val19 = load ptr, ptr %11, align 8, !tbaa !21
  %12 = getelementptr i8, ptr %.val19, i64 8
  %.val19.val = load ptr, ptr %12, align 8, !tbaa !23
  %13 = load ptr, ptr %.val19.val, align 8, !tbaa !25
  %14 = getelementptr i8, ptr %13, i64 8
  %.val18 = load ptr, ptr %14, align 8, !tbaa !26
  %15 = ptrtoint ptr %.val18 to i64
  %16 = and i64 %15, -2
  %17 = inttoptr i64 %16 to ptr
  %18 = tail call i32 @Saig_ManBmcCountNonternary_rec(ptr noundef %0, ptr noundef %17, ptr noundef %1, ptr noundef %10, i32 noundef %2, ptr noundef %6)
  %.not20 = icmp slt i32 %2, 0
  br i1 %.not20, label %._crit_edge, label %.lr.ph.preheader

.lr.ph.preheader:                                 ; preds = %3
  %wide.trip.count = zext i32 %4 to i64
  br label %.lr.ph

.lr.ph:                                           ; preds = %.lr.ph.preheader, %.lr.ph
  %indvars.iv = phi i64 [ 0, %.lr.ph.preheader ], [ %indvars.iv.next, %.lr.ph ]
  %19 = getelementptr inbounds nuw i32, ptr %6, i64 %indvars.iv
  %20 = load i32, ptr %19, align 4, !tbaa !28
  %21 = trunc nuw nsw i64 %indvars.iv to i32
  tail call void (i32, ptr, ...) @Abc_Print(i32 poison, ptr noundef nonnull @.str.1, i32 noundef %21, i32 noundef %20)
  %indvars.iv.next = add nuw nsw i64 %indvars.iv, 1
  %exitcond.not = icmp eq i64 %indvars.iv.next, %wide.trip.count
  br i1 %exitcond.not, label %._crit_edge.thread, label %.lr.ph, !llvm.loop !53

._crit_edge.thread:                               ; preds = %.lr.ph
  tail call void (i32, ptr, ...) @Abc_Print(i32 poison, ptr noundef nonnull @.str.2)
  br label %22

._crit_edge:                                      ; preds = %3
  tail call void (i32, ptr, ...) @Abc_Print(i32 poison, ptr noundef nonnull @.str.2)
  %.not17 = icmp eq ptr %6, null
  br i1 %.not17, label %23, label %22

22:                                               ; preds = %._crit_edge.thread, %._crit_edge
  tail call void @free(ptr noundef nonnull %6) #24
  br label %23

23:                                               ; preds = %._crit_edge, %22
  ret void
}